target datalayout = "e-m:e-p270:32:32-p271:32:32-p272:64:64-i64:64-i128:128-f80:128-n8:16:32:64-S128"
target triple = "x86_64-pc-linux-gnu"

%"class.sat::literal" = type { i32 }

; Function Attrs: inlinehint mustprogress nounwind uwtable
define linkonce_odr hidden noundef zeroext i1 @_ZN3sateqERKNS_7literalES2_(ptr noundef nonnull align 4 dereferenceable(4) %0, ptr noundef nonnull align 4 dereferenceable(4) %1) #7 comdat {
  %3 = alloca ptr, align 8
  %4 = alloca ptr, align 8
  store ptr %0, ptr %3, align 8, !tbaa !3
  store ptr %1, ptr %4, align 8, !tbaa !3
  %5 = load ptr, ptr %3, align 8, !tbaa !3
  %6 = getelementptr inbounds nuw %"class.sat::literal", ptr %5, i32 0, i32 0
  %7 = load i32, ptr %6, align 4, !tbaa !14
  %8 = load ptr, ptr %4, align 8, !tbaa !3
  %9 = getelementptr inbounds nuw %"class.sat::literal", ptr %8, i32 0, i32 0
  %10 = load i32, ptr %9, align 4, !tbaa !14
  %11 = icmp eq i32 %7, %10
  ret i1 %11
}

; Function Attrs: mustprogress uwtable
define hidden noundef zeroext i1 @_ZN3smt20backward_subsumptionEjPKN3sat7literalEjS3_(i32 noundef %0, ptr noundef %1, i32 noundef %2, ptr noundef %3) #6 {
  %5 = alloca i32, align 4
  %6 = alloca ptr, align 8
  %7 = alloca i32, align 4
  %8 = alloca ptr, align 8
  %9 = alloca i32, align 4
  %10 = alloca %"class.sat::literal", align 4
  %11 = alloca i32, align 4
  %12 = alloca i32, align 4
  store i32 %0, ptr %5, align 4, !tbaa !8
  store ptr %1, ptr %6, align 8, !tbaa !3
  store i32 %2, ptr %7, align 4, !tbaa !8
  store ptr %3, ptr %8, align 8, !tbaa !3
  call void @llvm.lifetime.start.p0(i64 4, ptr %9) #3
  store i32 0, ptr %9, align 4, !tbaa !8
  br label %13

13:                                               ; preds = %46, %4
  %14 = load i32, ptr %9, align 4, !tbaa !8
  %15 = load i32, ptr %5, align 4, !tbaa !8
  %16 = icmp ult i32 %14, %15
  br i1 %16, label %17, label %49

17:                                               ; preds = %13
  call void @llvm.lifetime.start.p0(i64 4, ptr %10) #3
  %18 = load ptr, ptr %6, align 8, !tbaa !3
  %19 = load i32, ptr %9, align 4, !tbaa !8
  %20 = zext i32 %19 to i64
  %21 = getelementptr inbounds nuw %"class.sat::literal", ptr %18, i64 %20
  call void @llvm.memcpy.p0.p0.i64(ptr align 4 %10, ptr align 4 %21, i64 4, i1 false), !tbaa.struct !51
  call void @llvm.lifetime.start.p0(i64 4, ptr %11) #3
  store i32 0, ptr %11, align 4, !tbaa !8
  br label %22

22:                                               ; preds = %34, %17
  %23 = load i32, ptr %11, align 4, !tbaa !8
  %24 = load i32, ptr %7, align 4, !tbaa !8
  %25 = icmp ult i32 %23, %24
  br i1 %25, label %26, label %37

26:                                               ; preds = %22
  %27 = load ptr, ptr %8, align 8, !tbaa !3
  %28 = load i32, ptr %11, align 4, !tbaa !8
  %29 = zext i32 %28 to i64
  %30 = getelementptr inbounds nuw %"class.sat::literal", ptr %27, i64 %29
  %31 = call noundef zeroext i1 @_ZN3sateqERKNS_7literalES2_(ptr noundef nonnull align 4 dereferenceable(4) %10, ptr noundef nonnull align 4 dereferenceable(4) %30)
  br i1 %31, label %32, label %33

32:                                               ; preds = %26
  br label %37

33:                                               ; preds = %26
  br label %34

34:                                               ; preds = %33
  %35 = load i32, ptr %11, align 4, !tbaa !8
  %36 = add i32 %35, 1
  store i32 %36, ptr %11, align 4, !tbaa !8
  br label %22, !llvm.loop !55

37:                                               ; preds = %32, %22
  %38 = load i32, ptr %11, align 4, !tbaa !8
  %39 = load i32, ptr %7, align 4, !tbaa !8
  %40 = icmp eq i32 %38, %39
  br i1 %40, label %41, label %42

41:                                               ; preds = %37
  store i32 2, ptr %12, align 4
  br label %43

42:                                               ; preds = %37
  store i32 0, ptr %12, align 4
  br label %43

43:                                               ; preds = %42, %41
  call void @llvm.lifetime.end.p0(i64 4, ptr %11) #3
  call void @llvm.lifetime.end.p0(i64 4, ptr %10) #3
  %44 = load i32, ptr %12, align 4
  switch i32 %44, label %53 [
    i32 0, label %45
    i32 2, label %49
  ]

45:                                               ; preds = %43
  br label %46

46:                                               ; preds = %45
  %47 = load i32, ptr %9, align 4, !tbaa !8
  %48 = add i32 %47, 1
  store i32 %48, ptr %9, align 4, !tbaa !8
  br label %13, !llvm.loop !56

49:                                               ; preds = %43, %13
  %50 = load i32, ptr %9, align 4, !tbaa !8
  %51 = load i32, ptr %5, align 4, !tbaa !8
  %52 = icmp eq i32 %50, %51
  store i32 1, ptr %12, align 4
  call void @llvm.lifetime.end.p0(i64 4, ptr %9) #3
  ret i1 %52

53:                                               ; preds = %43
  unreachable
}