; Function Attrs: mustprogress nofree norecurse nosync nounwind willreturn memory(argmem: read) uwtable
define hidden noundef zeroext i1 @_ZN3smt20backward_subsumptionEjPKN3sat7literalEjS3_(i32 noundef %0, ptr noundef readonly captures(none) %1, i32 noundef %2, ptr noundef readonly captures(none) %3) local_unnamed_addr #5 {
  %5 = icmp ne i32 %0, 0
  %6 = icmp ne i32 %2, 0
  %or.cond = and i1 %5, %6
  br i1 %or.cond, label %.lr.ph.us.preheader, label %._crit_edge22

.lr.ph.us.preheader:                              ; preds = %4
  %wide.trip.count34 = zext i32 %0 to i64
  %wide.trip.count = zext i32 %2 to i64
  br label %.lr.ph.us

.lr.ph.us:                                        ; preds = %.lr.ph.us.preheader, %17
  %indvars.iv31 = phi i64 [ 0, %.lr.ph.us.preheader ], [ %indvars.iv.next32, %17 ]
  %7 = getelementptr inbounds nuw %"class.sat::literal", ptr %1, i64 %indvars.iv31
  %8 = load i32, ptr %7, align 4, !tbaa !16
  br label %9

9:                                                ; preds = %.lr.ph.us, %13
  %indvars.iv = phi i64 [ 0, %.lr.ph.us ], [ %indvars.iv.next, %13 ]
  %10 = getelementptr inbounds nuw %"class.sat::literal", ptr %3, i64 %indvars.iv
  %11 = load i32, ptr %10, align 4, !tbaa !3
  %12 = icmp eq i32 %8, %11
  br i1 %12, label %._crit_edge.us, label %13

13:                                               ; preds = %9
  %indvars.iv.next = add nuw nsw i64 %indvars.iv, 1
  %exitcond.not = icmp eq i64 %indvars.iv.next, %wide.trip.count
  br i1 %exitcond.not, label %._crit_edge.us.thread, label %9, !llvm.loop !33

._crit_edge.us.thread:                            ; preds = %13
  %14 = trunc nuw i64 %indvars.iv31 to i32
  br label %._crit_edge22

._crit_edge.us:                                   ; preds = %9
  %15 = trunc nuw i64 %indvars.iv to i32
  %16 = icmp eq i32 %2, %15
  br i1 %16, label %._crit_edge22.loopexit.split.loop.exit, label %17

17:                                               ; preds = %._crit_edge.us
  %indvars.iv.next32 = add nuw nsw i64 %indvars.iv31, 1
  %exitcond35.not = icmp eq i64 %indvars.iv.next32, %wide.trip.count34
  br i1 %exitcond35.not, label %._crit_edge22, label %.lr.ph.us, !llvm.loop !34

._crit_edge22.loopexit.split.loop.exit:           ; preds = %._crit_edge.us
  %18 = trunc nuw i64 %indvars.iv31 to i32
  br label %._crit_edge22

._crit_edge22:                                    ; preds = %17, %._crit_edge22.loopexit.split.loop.exit, %._crit_edge.us.thread, %4
  %.015.lcssa = phi i32 [ 0, %4 ], [ %14, %._crit_edge.us.thread ], [ %18, %._crit_edge22.loopexit.split.loop.exit ], [ %0, %17 ]
  %19 = icmp eq i32 %.015.lcssa, %0
  ret i1 %19
}